target datalayout = "e-m:e-p270:32:32-p271:32:32-p272:64:64-i64:64-i128:128-f80:128-n8:16:32:64-S128"
target triple = "x86_64-pc-linux-gnu"

%struct.pg_compress_specification = type { i32, i32, i32, i32, i8, ptr }
%struct._archiveHandle = type { %struct.Archive, i32, ptr, ptr, i64, i64, i32, %struct.sqlparseInfo, i64, i32, ptr, i64, i64, i64, ptr, ptr, ptr, ptr, ptr, ptr, ptr, ptr, ptr, ptr, ptr, ptr, ptr, ptr, ptr, ptr, ptr, ptr, ptr, ptr, ptr, ptr, ptr, ptr, ptr, ptr, ptr, ptr, ptr, ptr, i32, i32, i8, i32, i8, i32, ptr, ptr, ptr, ptr, i32, i32, ptr, ptr, ptr, %struct.pg_compress_specification, i8, i32, i32, ptr, ptr, ptr, ptr, ptr, i32, ptr, i64, i64, i32, i32, i32, i32, ptr, ptr }
%struct.Archive = type { ptr, ptr, i32, ptr, i32, i8, i32, i32, i32, ptr, i32, i8, ptr, ptr, i8, i32, ptr }
%struct.sqlparseInfo = type { i32, i8, ptr }
%struct._tocEntry = type { ptr, ptr, %struct.CatalogId, i32, i32, i8, ptr, ptr, ptr, ptr, i8, ptr, ptr, ptr, ptr, ptr, ptr, i32, ptr, ptr, ptr, i64, i32, i8, ptr, ptr, i32, ptr, i32, ptr, i32 }
%struct.CatalogId = type { i32, i32 }
%struct._archiveOpts = type { ptr, ptr, ptr, ptr, i8, ptr, ptr, i32, ptr, ptr, ptr, ptr, i32, ptr, ptr }

; Function Attrs: nounwind uwtable
define dso_local ptr @ArchiveEntry(ptr noundef %0, i64 %1, i32 noundef %2, ptr noundef %3) #0 {
  %5 = alloca %struct.CatalogId, align 4
  %6 = alloca ptr, align 8
  %7 = alloca i32, align 4
  %8 = alloca ptr, align 8
  %9 = alloca ptr, align 8
  %10 = alloca ptr, align 8
  store i64 %1, ptr %5, align 4
  store ptr %0, ptr %6, align 8
  store i32 %2, ptr %7, align 4
  store ptr %3, ptr %8, align 8
  call void @llvm.lifetime.start.p0(i64 8, ptr %9) #11
  %11 = load ptr, ptr %6, align 8
  store ptr %11, ptr %9, align 8
  call void @llvm.lifetime.start.p0(i64 8, ptr %10) #11
  %12 = call ptr @pg_malloc0(i64 noundef 232)
  store ptr %12, ptr %10, align 8
  %13 = load ptr, ptr %9, align 8
  %14 = getelementptr inbounds nuw %struct._archiveHandle, ptr %13, i32 0, i32 54
  %15 = load i32, ptr %14, align 8
  %16 = add i32 %15, 1
  store i32 %16, ptr %14, align 8
  %17 = load i32, ptr %7, align 4
  %18 = load ptr, ptr %9, align 8
  %19 = getelementptr inbounds nuw %struct._archiveHandle, ptr %18, i32 0, i32 55
  %20 = load i32, ptr %19, align 4
  %21 = icmp sgt i32 %17, %20
  br i1 %21, label %22, label %26

22:                                               ; preds = %4
  %23 = load i32, ptr %7, align 4
  %24 = load ptr, ptr %9, align 8
  %25 = getelementptr inbounds nuw %struct._archiveHandle, ptr %24, i32 0, i32 55
  store i32 %23, ptr %25, align 4
  br label %26

26:                                               ; preds = %22, %4
  %27 = load ptr, ptr %9, align 8
  %28 = getelementptr inbounds nuw %struct._archiveHandle, ptr %27, i32 0, i32 53
  %29 = load ptr, ptr %28, align 8
  %30 = getelementptr inbounds nuw %struct._tocEntry, ptr %29, i32 0, i32 0
  %31 = load ptr, ptr %30, align 8
  %32 = load ptr, ptr %10, align 8
  %33 = getelementptr inbounds nuw %struct._tocEntry, ptr %32, i32 0, i32 0
  store ptr %31, ptr %33, align 8
  %34 = load ptr, ptr %9, align 8
  %35 = getelementptr inbounds nuw %struct._archiveHandle, ptr %34, i32 0, i32 53
  %36 = load ptr, ptr %35, align 8
  %37 = load ptr, ptr %10, align 8
  %38 = getelementptr inbounds nuw %struct._tocEntry, ptr %37, i32 0, i32 1
  store ptr %36, ptr %38, align 8
  %39 = load ptr, ptr %10, align 8
  %40 = load ptr, ptr %9, align 8
  %41 = getelementptr inbounds nuw %struct._archiveHandle, ptr %40, i32 0, i32 53
  %42 = load ptr, ptr %41, align 8
  %43 = getelementptr inbounds nuw %struct._tocEntry, ptr %42, i32 0, i32 0
  %44 = load ptr, ptr %43, align 8
  %45 = getelementptr inbounds nuw %struct._tocEntry, ptr %44, i32 0, i32 1
  store ptr %39, ptr %45, align 8
  %46 = load ptr, ptr %10, align 8
  %47 = load ptr, ptr %9, align 8
  %48 = getelementptr inbounds nuw %struct._archiveHandle, ptr %47, i32 0, i32 53
  %49 = load ptr, ptr %48, align 8
  %50 = getelementptr inbounds nuw %struct._tocEntry, ptr %49, i32 0, i32 0
  store ptr %46, ptr %50, align 8
  %51 = load ptr, ptr %10, align 8
  %52 = getelementptr inbounds nuw %struct._tocEntry, ptr %51, i32 0, i32 2
  call void @llvm.memcpy.p0.p0.i64(ptr align 8 %52, ptr align 4 %5, i64 8, i1 false)
  %53 = load i32, ptr %7, align 4
  %54 = load ptr, ptr %10, align 8
  %55 = getelementptr inbounds nuw %struct._tocEntry, ptr %54, i32 0, i32 3
  store i32 %53, ptr %55, align 8
  %56 = load ptr, ptr %8, align 8
  %57 = getelementptr inbounds nuw %struct._archiveOpts, ptr %56, i32 0, i32 7
  %58 = load i32, ptr %57, align 8
  %59 = load ptr, ptr %10, align 8
  %60 = getelementptr inbounds nuw %struct._tocEntry, ptr %59, i32 0, i32 4
  store i32 %58, ptr %60, align 4
  %61 = load ptr, ptr %8, align 8
  %62 = getelementptr inbounds nuw %struct._archiveOpts, ptr %61, i32 0, i32 0
  %63 = load ptr, ptr %62, align 8
  %64 = call ptr @pg_strdup(ptr noundef %63)
  %65 = load ptr, ptr %10, align 8
  %66 = getelementptr inbounds nuw %struct._tocEntry, ptr %65, i32 0, i32 6
  store ptr %64, ptr %66, align 8
  %67 = load ptr, ptr %8, align 8
  %68 = getelementptr inbounds nuw %struct._archiveOpts, ptr %67, i32 0, i32 1
  %69 = load ptr, ptr %68, align 8
  %70 = icmp ne ptr %69, null
  br i1 %70, label %71, label %76

71:                                               ; preds = %26
  %72 = load ptr, ptr %8, align 8
  %73 = getelementptr inbounds nuw %struct._archiveOpts, ptr %72, i32 0, i32 1
  %74 = load ptr, ptr %73, align 8
  %75 = call ptr @pg_strdup(ptr noundef %74)
  br label %77

76:                                               ; preds = %26
  br label %77

77:                                               ; preds = %76, %71
  %78 = phi ptr [ %75, %71 ], [ null, %76 ]
  %79 = load ptr, ptr %10, align 8
  %80 = getelementptr inbounds nuw %struct._tocEntry, ptr %79, i32 0, i32 7
  store ptr %78, ptr %80, align 8
  %81 = load ptr, ptr %8, align 8
  %82 = getelementptr inbounds nuw %struct._archiveOpts, ptr %81, i32 0, i32 2
  %83 = load ptr, ptr %82, align 8
  %84 = icmp ne ptr %83, null
  br i1 %84, label %85, label %90

85:                                               ; preds = %77
  %86 = load ptr, ptr %8, align 8
  %87 = getelementptr inbounds nuw %struct._archiveOpts, ptr %86, i32 0, i32 2
  %88 = load ptr, ptr %87, align 8
  %89 = call ptr @pg_strdup(ptr noundef %88)
  br label %91

90:                                               ; preds = %77
  br label %91

91:                                               ; preds = %90, %85
  %92 = phi ptr [ %89, %85 ], [ null, %90 ]
  %93 = load ptr, ptr %10, align 8
  %94 = getelementptr inbounds nuw %struct._tocEntry, ptr %93, i32 0, i32 8
  store ptr %92, ptr %94, align 8
  %95 = load ptr, ptr %8, align 8
  %96 = getelementptr inbounds nuw %struct._archiveOpts, ptr %95, i32 0, i32 3
  %97 = load ptr, ptr %96, align 8
  %98 = icmp ne ptr %97, null
  br i1 %98, label %99, label %104

99:                                               ; preds = %91
  %100 = load ptr, ptr %8, align 8
  %101 = getelementptr inbounds nuw %struct._archiveOpts, ptr %100, i32 0, i32 3
  %102 = load ptr, ptr %101, align 8
  %103 = call ptr @pg_strdup(ptr noundef %102)
  br label %105

104:                                              ; preds = %91
  br label %105

105:                                              ; preds = %104, %99
  %106 = phi ptr [ %103, %99 ], [ null, %104 ]
  %107 = load ptr, ptr %10, align 8
  %108 = getelementptr inbounds nuw %struct._tocEntry, ptr %107, i32 0, i32 9
  store ptr %106, ptr %108, align 8
  %109 = load ptr, ptr %8, align 8
  %110 = getelementptr inbounds nuw %struct._archiveOpts, ptr %109, i32 0, i32 4
  %111 = load i8, ptr %110, align 8
  %112 = load ptr, ptr %10, align 8
  %113 = getelementptr inbounds nuw %struct._tocEntry, ptr %112, i32 0, i32 10
  store i8 %111, ptr %113, align 8
  %114 = load ptr, ptr %8, align 8
  %115 = getelementptr inbounds nuw %struct._archiveOpts, ptr %114, i32 0, i32 5
  %116 = load ptr, ptr %115, align 8
  %117 = icmp ne ptr %116, null
  br i1 %117, label %118, label %123

118:                                              ; preds = %105
  %119 = load ptr, ptr %8, align 8
  %120 = getelementptr inbounds nuw %struct._archiveOpts, ptr %119, i32 0, i32 5
  %121 = load ptr, ptr %120, align 8
  %122 = call ptr @pg_strdup(ptr noundef %121)
  br label %124

123:                                              ; preds = %105
  br label %124

124:                                              ; preds = %123, %118
  %125 = phi ptr [ %122, %118 ], [ null, %123 ]
  %126 = load ptr, ptr %10, align 8
  %127 = getelementptr inbounds nuw %struct._tocEntry, ptr %126, i32 0, i32 11
  store ptr %125, ptr %127, align 8
  %128 = load ptr, ptr %8, align 8
  %129 = getelementptr inbounds nuw %struct._archiveOpts, ptr %128, i32 0, i32 6
  %130 = load ptr, ptr %129, align 8
  %131 = call ptr @pg_strdup(ptr noundef %130)
  %132 = load ptr, ptr %10, align 8
  %133 = getelementptr inbounds nuw %struct._tocEntry, ptr %132, i32 0, i32 12
  store ptr %131, ptr %133, align 8
  %134 = load ptr, ptr %8, align 8
  %135 = getelementptr inbounds nuw %struct._archiveOpts, ptr %134, i32 0, i32 8
  %136 = load ptr, ptr %135, align 8
  %137 = icmp ne ptr %136, null
  br i1 %137, label %138, label %143

138:                                              ; preds = %124
  %139 = load ptr, ptr %8, align 8
  %140 = getelementptr inbounds nuw %struct._archiveOpts, ptr %139, i32 0, i32 8
  %141 = load ptr, ptr %140, align 8
  %142 = call ptr @pg_strdup(ptr noundef %141)
  br label %144

143:                                              ; preds = %124
  br label %144

144:                                              ; preds = %143, %138
  %145 = phi ptr [ %142, %138 ], [ null, %143 ]
  %146 = load ptr, ptr %10, align 8
  %147 = getelementptr inbounds nuw %struct._tocEntry, ptr %146, i32 0, i32 13
  store ptr %145, ptr %147, align 8
  %148 = load ptr, ptr %8, align 8
  %149 = getelementptr inbounds nuw %struct._archiveOpts, ptr %148, i32 0, i32 9
  %150 = load ptr, ptr %149, align 8
  %151 = icmp ne ptr %150, null
  br i1 %151, label %152, label %157

152:                                              ; preds = %144
  %153 = load ptr, ptr %8, align 8
  %154 = getelementptr inbounds nuw %struct._archiveOpts, ptr %153, i32 0, i32 9
  %155 = load ptr, ptr %154, align 8
  %156 = call ptr @pg_strdup(ptr noundef %155)
  br label %158

157:                                              ; preds = %144
  br label %158

158:                                              ; preds = %157, %152
  %159 = phi ptr [ %156, %152 ], [ null, %157 ]
  %160 = load ptr, ptr %10, align 8
  %161 = getelementptr inbounds nuw %struct._tocEntry, ptr %160, i32 0, i32 14
  store ptr %159, ptr %161, align 8
  %162 = load ptr, ptr %8, align 8
  %163 = getelementptr inbounds nuw %struct._archiveOpts, ptr %162, i32 0, i32 10
  %164 = load ptr, ptr %163, align 8
  %165 = icmp ne ptr %164, null
  br i1 %165, label %166, label %171

166:                                              ; preds = %158
  %167 = load ptr, ptr %8, align 8
  %168 = getelementptr inbounds nuw %struct._archiveOpts, ptr %167, i32 0, i32 10
  %169 = load ptr, ptr %168, align 8
  %170 = call ptr @pg_strdup(ptr noundef %169)
  br label %172

171:                                              ; preds = %158
  br label %172

172:                                              ; preds = %171, %166
  %173 = phi ptr [ %170, %166 ], [ null, %171 ]
  %174 = load ptr, ptr %10, align 8
  %175 = getelementptr inbounds nuw %struct._tocEntry, ptr %174, i32 0, i32 15
  store ptr %173, ptr %175, align 8
  %176 = load ptr, ptr %8, align 8
  %177 = getelementptr inbounds nuw %struct._archiveOpts, ptr %176, i32 0, i32 12
  %178 = load i32, ptr %177, align 8
  %179 = icmp sgt i32 %178, 0
  br i1 %179, label %180, label %205

180:                                              ; preds = %172
  %181 = load ptr, ptr %8, align 8
  %182 = getelementptr inbounds nuw %struct._archiveOpts, ptr %181, i32 0, i32 12
  %183 = load i32, ptr %182, align 8
  %184 = sext i32 %183 to i64
  %185 = mul i64 %184, 4
  %186 = call ptr @pg_malloc(i64 noundef %185)
  %187 = load ptr, ptr %10, align 8
  %188 = getelementptr inbounds nuw %struct._tocEntry, ptr %187, i32 0, i32 16
  store ptr %186, ptr %188, align 8
  %189 = load ptr, ptr %10, align 8
  %190 = getelementptr inbounds nuw %struct._tocEntry, ptr %189, i32 0, i32 16
  %191 = load ptr, ptr %190, align 8
  %192 = load ptr, ptr %8, align 8
  %193 = getelementptr inbounds nuw %struct._archiveOpts, ptr %192, i32 0, i32 11
  %194 = load ptr, ptr %193, align 8
  %195 = load ptr, ptr %8, align 8
  %196 = getelementptr inbounds nuw %struct._archiveOpts, ptr %195, i32 0, i32 12
  %197 = load i32, ptr %196, align 8
  %198 = sext i32 %197 to i64
  %199 = mul i64 %198, 4
  call void @llvm.memcpy.p0.p0.i64(ptr align 4 %191, ptr align 4 %194, i64 %199, i1 false)
  %200 = load ptr, ptr %8, align 8
  %201 = getelementptr inbounds nuw %struct._archiveOpts, ptr %200, i32 0, i32 12
  %202 = load i32, ptr %201, align 8
  %203 = load ptr, ptr %10, align 8
  %204 = getelementptr inbounds nuw %struct._tocEntry, ptr %203, i32 0, i32 17
  store i32 %202, ptr %204, align 8
  br label %210

205:                                              ; preds = %172
  %206 = load ptr, ptr %10, align 8
  %207 = getelementptr inbounds nuw %struct._tocEntry, ptr %206, i32 0, i32 16
  store ptr null, ptr %207, align 8
  %208 = load ptr, ptr %10, align 8
  %209 = getelementptr inbounds nuw %struct._tocEntry, ptr %208, i32 0, i32 17
  store i32 0, ptr %209, align 8
  br label %210

210:                                              ; preds = %205, %180
  %211 = load ptr, ptr %8, align 8
  %212 = getelementptr inbounds nuw %struct._archiveOpts, ptr %211, i32 0, i32 13
  %213 = load ptr, ptr %212, align 8
  %214 = load ptr, ptr %10, align 8
  %215 = getelementptr inbounds nuw %struct._tocEntry, ptr %214, i32 0, i32 18
  store ptr %213, ptr %215, align 8
  %216 = load ptr, ptr %8, align 8
  %217 = getelementptr inbounds nuw %struct._archiveOpts, ptr %216, i32 0, i32 14
  %218 = load ptr, ptr %217, align 8
  %219 = load ptr, ptr %10, align 8
  %220 = getelementptr inbounds nuw %struct._tocEntry, ptr %219, i32 0, i32 19
  store ptr %218, ptr %220, align 8
  %221 = load ptr, ptr %8, align 8
  %222 = getelementptr inbounds nuw %struct._archiveOpts, ptr %221, i32 0, i32 13
  %223 = load ptr, ptr %222, align 8
  %224 = icmp ne ptr %223, null
  %225 = select i1 %224, i32 1, i32 0
  %226 = icmp ne i32 %225, 0
  %227 = load ptr, ptr %10, align 8
  %228 = getelementptr inbounds nuw %struct._tocEntry, ptr %227, i32 0, i32 5
  %229 = zext i1 %226 to i8
  store i8 %229, ptr %228, align 8
  %230 = load ptr, ptr %10, align 8
  %231 = getelementptr inbounds nuw %struct._tocEntry, ptr %230, i32 0, i32 20
  store ptr null, ptr %231, align 8
  %232 = load ptr, ptr %10, align 8
  %233 = getelementptr inbounds nuw %struct._tocEntry, ptr %232, i32 0, i32 21
  store i64 0, ptr %233, align 8
  %234 = load ptr, ptr %9, align 8
  %235 = getelementptr inbounds nuw %struct._archiveHandle, ptr %234, i32 0, i32 14
  %236 = load ptr, ptr %235, align 8
  %237 = icmp ne ptr %236, null
  br i1 %237, label %238, label %244

238:                                              ; preds = %210
  %239 = load ptr, ptr %9, align 8
  %240 = getelementptr inbounds nuw %struct._archiveHandle, ptr %239, i32 0, i32 14
  %241 = load ptr, ptr %240, align 8
  %242 = load ptr, ptr %9, align 8
  %243 = load ptr, ptr %10, align 8
  call void %241(ptr noundef %242, ptr noundef %243)
  br label %244

244:                                              ; preds = %238, %210
  %245 = load ptr, ptr %10, align 8
  call void @llvm.lifetime.end.p0(i64 8, ptr %10) #11
  call void @llvm.lifetime.end.p0(i64 8, ptr %9) #11
  ret ptr %245
}