; Function Attrs: nounwind uwtable
define dso_local ptr @ArchiveEntry(ptr noundef %0, i64 %1, i32 noundef %2, ptr noundef readonly captures(none) %3) local_unnamed_addr #0 {
  %5 = tail call ptr @pg_malloc0(i64 noundef 232) #22
  %6 = getelementptr inbounds nuw i8, ptr %0, i64 512
  %7 = load i32, ptr %6, align 8
  %8 = add i32 %7, 1
  store i32 %8, ptr %6, align 8
  %9 = getelementptr inbounds nuw i8, ptr %0, i64 516
  %10 = load i32, ptr %9, align 4
  %11 = icmp sgt i32 %2, %10
  br i1 %11, label %12, label %13

12:                                               ; preds = %4
  store i32 %2, ptr %9, align 4
  br label %13

13:                                               ; preds = %12, %4
  %14 = getelementptr inbounds nuw i8, ptr %0, i64 504
  %15 = load ptr, ptr %14, align 8
  %16 = load ptr, ptr %15, align 8
  store ptr %16, ptr %5, align 8
  %17 = load ptr, ptr %14, align 8
  %18 = getelementptr inbounds nuw i8, ptr %5, i64 8
  store ptr %17, ptr %18, align 8
  %19 = load ptr, ptr %17, align 8
  %20 = getelementptr inbounds nuw i8, ptr %19, i64 8
  store ptr %5, ptr %20, align 8
  %21 = load ptr, ptr %14, align 8
  store ptr %5, ptr %21, align 8
  %22 = getelementptr inbounds nuw i8, ptr %5, i64 16
  store i64 %1, ptr %22, align 8
  %23 = getelementptr inbounds nuw i8, ptr %5, i64 24
  store i32 %2, ptr %23, align 8
  %24 = getelementptr inbounds nuw i8, ptr %3, i64 56
  %25 = load i32, ptr %24, align 8
  %26 = getelementptr inbounds nuw i8, ptr %5, i64 28
  store i32 %25, ptr %26, align 4
  %27 = load ptr, ptr %3, align 8
  %28 = tail call ptr @pg_strdup(ptr noundef %27) #22
  %29 = getelementptr inbounds nuw i8, ptr %5, i64 40
  store ptr %28, ptr %29, align 8
  %30 = getelementptr inbounds nuw i8, ptr %3, i64 8
  %31 = load ptr, ptr %30, align 8
  %.not = icmp eq ptr %31, null
  br i1 %.not, label %34, label %32

32:                                               ; preds = %13
  %33 = tail call ptr @pg_strdup(ptr noundef nonnull %31) #22
  br label %34

34:                                               ; preds = %13, %32
  %35 = phi ptr [ %33, %32 ], [ null, %13 ]
  %36 = getelementptr inbounds nuw i8, ptr %5, i64 48
  store ptr %35, ptr %36, align 8
  %37 = getelementptr inbounds nuw i8, ptr %3, i64 16
  %38 = load ptr, ptr %37, align 8
  %.not77 = icmp eq ptr %38, null
  br i1 %.not77, label %41, label %39

39:                                               ; preds = %34
  %40 = tail call ptr @pg_strdup(ptr noundef nonnull %38) #22
  br label %41

41:                                               ; preds = %34, %39
  %42 = phi ptr [ %40, %39 ], [ null, %34 ]
  %43 = getelementptr inbounds nuw i8, ptr %5, i64 56
  store ptr %42, ptr %43, align 8
  %44 = getelementptr inbounds nuw i8, ptr %3, i64 24
  %45 = load ptr, ptr %44, align 8
  %.not78 = icmp eq ptr %45, null
  br i1 %.not78, label %48, label %46

46:                                               ; preds = %41
  %47 = tail call ptr @pg_strdup(ptr noundef nonnull %45) #22
  br label %48

48:                                               ; preds = %41, %46
  %49 = phi ptr [ %47, %46 ], [ null, %41 ]
  %50 = getelementptr inbounds nuw i8, ptr %5, i64 64
  store ptr %49, ptr %50, align 8
  %51 = getelementptr inbounds nuw i8, ptr %3, i64 32
  %52 = load i8, ptr %51, align 8
  %53 = getelementptr inbounds nuw i8, ptr %5, i64 72
  store i8 %52, ptr %53, align 8
  %54 = getelementptr inbounds nuw i8, ptr %3, i64 40
  %55 = load ptr, ptr %54, align 8
  %.not79 = icmp eq ptr %55, null
  br i1 %.not79, label %58, label %56

56:                                               ; preds = %48
  %57 = tail call ptr @pg_strdup(ptr noundef nonnull %55) #22
  br label %58

58:                                               ; preds = %48, %56
  %59 = phi ptr [ %57, %56 ], [ null, %48 ]
  %60 = getelementptr inbounds nuw i8, ptr %5, i64 80
  store ptr %59, ptr %60, align 8
  %61 = getelementptr inbounds nuw i8, ptr %3, i64 48
  %62 = load ptr, ptr %61, align 8
  %63 = tail call ptr @pg_strdup(ptr noundef %62) #22
  %64 = getelementptr inbounds nuw i8, ptr %5, i64 88
  store ptr %63, ptr %64, align 8
  %65 = getelementptr inbounds nuw i8, ptr %3, i64 64
  %66 = load ptr, ptr %65, align 8
  %.not80 = icmp eq ptr %66, null
  br i1 %.not80, label %69, label %67

67:                                               ; preds = %58
  %68 = tail call ptr @pg_strdup(ptr noundef nonnull %66) #22
  br label %69

69:                                               ; preds = %58, %67
  %70 = phi ptr [ %68, %67 ], [ null, %58 ]
  %71 = getelementptr inbounds nuw i8, ptr %5, i64 96
  store ptr %70, ptr %71, align 8
  %72 = getelementptr inbounds nuw i8, ptr %3, i64 72
  %73 = load ptr, ptr %72, align 8
  %.not81 = icmp eq ptr %73, null
  br i1 %.not81, label %76, label %74

74:                                               ; preds = %69
  %75 = tail call ptr @pg_strdup(ptr noundef nonnull %73) #22
  br label %76

76:                                               ; preds = %69, %74
  %77 = phi ptr [ %75, %74 ], [ null, %69 ]
  %78 = getelementptr inbounds nuw i8, ptr %5, i64 104
  store ptr %77, ptr %78, align 8
  %79 = getelementptr inbounds nuw i8, ptr %3, i64 80
  %80 = load ptr, ptr %79, align 8
  %.not82 = icmp eq ptr %80, null
  br i1 %.not82, label %83, label %81

81:                                               ; preds = %76
  %82 = tail call ptr @pg_strdup(ptr noundef nonnull %80) #22
  br label %83

83:                                               ; preds = %76, %81
  %84 = phi ptr [ %82, %81 ], [ null, %76 ]
  %85 = getelementptr inbounds nuw i8, ptr %5, i64 112
  store ptr %84, ptr %85, align 8
  %86 = getelementptr inbounds nuw i8, ptr %3, i64 96
  %87 = load i32, ptr %86, align 8
  %88 = icmp sgt i32 %87, 0
  br i1 %88, label %89, label %100

89:                                               ; preds = %83
  %90 = zext nneg i32 %87 to i64
  %91 = shl nuw nsw i64 %90, 2
  %92 = tail call ptr @pg_malloc(i64 noundef %91) #22
  %93 = getelementptr inbounds nuw i8, ptr %5, i64 120
  store ptr %92, ptr %93, align 8
  %94 = getelementptr inbounds nuw i8, ptr %3, i64 88
  %95 = load ptr, ptr %94, align 8
  %96 = load i32, ptr %86, align 8
  %97 = sext i32 %96 to i64
  %98 = shl nsw i64 %97, 2
  tail call void @llvm.memcpy.p0.p0.i64(ptr align 4 %92, ptr align 4 %95, i64 %98, i1 false)
  %99 = load i32, ptr %86, align 8
  br label %102

100:                                              ; preds = %83
  %101 = getelementptr inbounds nuw i8, ptr %5, i64 120
  store ptr null, ptr %101, align 8
  br label %102

102:                                              ; preds = %100, %89
  %.sink = phi i32 [ %99, %89 ], [ 0, %100 ]
  %103 = getelementptr inbounds nuw i8, ptr %5, i64 128
  store i32 %.sink, ptr %103, align 8
  %104 = getelementptr inbounds nuw i8, ptr %3, i64 104
  %105 = load ptr, ptr %104, align 8
  %106 = getelementptr inbounds nuw i8, ptr %5, i64 136
  store ptr %105, ptr %106, align 8
  %107 = getelementptr inbounds nuw i8, ptr %3, i64 112
  %108 = load ptr, ptr %107, align 8
  %109 = getelementptr inbounds nuw i8, ptr %5, i64 144
  store ptr %108, ptr %109, align 8
  %110 = load ptr, ptr %104, align 8
  %111 = icmp ne ptr %110, null
  %112 = getelementptr inbounds nuw i8, ptr %5, i64 32
  %113 = zext i1 %111 to i8
  store i8 %113, ptr %112, align 8
  %114 = getelementptr inbounds nuw i8, ptr %5, i64 152
  %115 = getelementptr inbounds nuw i8, ptr %0, i64 216
  tail call void @llvm.memset.p0.i64(ptr noundef nonnull align 8 dereferenceable(16) %114, i8 0, i64 16, i1 false)
  %116 = load ptr, ptr %115, align 8
  %.not83 = icmp eq ptr %116, null
  br i1 %.not83, label %118, label %117

117:                                              ; preds = %102
  tail call void %116(ptr noundef nonnull %0, ptr noundef nonnull %5) #22
  br label %118

118:                                              ; preds = %117, %102
  ret ptr %5
}